; ModuleID = '43/5.c'
source_filename = "43/5.c"
target datalayout = "e-m:e-p270:32:32-p271:32:32-p272:64:64-i64:64-f80:128-n8:16:32:64-S128"
target triple = "x86_64-pc-linux-gnu"

@.str = private unnamed_addr constant [3 x i8] c"%d\00", align 1
@.str.1 = private unnamed_addr constant [7 x i8] c"%d %d\0A\00", align 1

; Function Attrs: noinline nounwind uwtable
define dso_local i32 @main() #0 {
  %1 = alloca i32, align 4
  %2 = alloca i32, align 4
  %3 = alloca i32, align 4
  %4 = alloca i32, align 4
  %5 = alloca i32, align 4
  %6 = alloca i32, align 4
  store i32 0, i32* %1, align 4
  %7 = call i32 (i8*, ...) @__isoc99_scanf(i8* getelementptr inbounds ([3 x i8], [3 x i8]* @.str, i64 0, i64 0), i32* %2)
  store i32 3, i32* %3, align 4
  br label %8

8:                                                ; preds = %83, %0
  %9 = load i32, i32* %3, align 4
  %10 = load i32, i32* %2, align 4
  %11 = icmp slt i32 %9, %10
  br i1 %11, label %12, label %86

12:                                               ; preds = %8
  store i32 3, i32* %4, align 4
  br label %13

13:                                               ; preds = %79, %12
  %14 = load i32, i32* %4, align 4
  %15 = load i32, i32* %2, align 4
  %16 = icmp slt i32 %14, %15
  br i1 %16, label %17, label %82

17:                                               ; preds = %13
  %18 = load i32, i32* %3, align 4
  %19 = load i32, i32* %4, align 4
  %20 = add nsw i32 %18, %19
  %21 = load i32, i32* %2, align 4
  %22 = icmp eq i32 %20, %21
  br i1 %22, label %23, label %78

23:                                               ; preds = %17
  %24 = load i32, i32* %3, align 4
  %25 = load i32, i32* %4, align 4
  %26 = icmp sle i32 %24, %25
  br i1 %26, label %27, label %78

27:                                               ; preds = %23
  store i32 2, i32* %6, align 4
  br label %28

28:                                               ; preds = %41, %27
  %29 = load i32, i32* %6, align 4
  %30 = load i32, i32* %6, align 4
  %31 = mul nsw i32 %29, %30
  %32 = load i32, i32* %3, align 4
  %33 = icmp sle i32 %31, %32
  br i1 %33, label %34, label %44

34:                                               ; preds = %28
  %35 = load i32, i32* %3, align 4
  %36 = load i32, i32* %6, align 4
  %37 = srem i32 %35, %36
  %38 = icmp eq i32 %37, 0
  br i1 %38, label %39, label %40

39:                                               ; preds = %34
  br label %44

40:                                               ; preds = %34
  br label %41

41:                                               ; preds = %40
  %42 = load i32, i32* %6, align 4
  %43 = add nsw i32 %42, 1
  store i32 %43, i32* %6, align 4
  br label %28

44:                                               ; preds = %39, %28
  store i32 2, i32* %5, align 4
  br label %45

45:                                               ; preds = %58, %44
  %46 = load i32, i32* %5, align 4
  %47 = load i32, i32* %5, align 4
  %48 = mul nsw i32 %46, %47
  %49 = load i32, i32* %4, align 4
  %50 = icmp sle i32 %48, %49
  br i1 %50, label %51, label %61

51:                                               ; preds = %45
  %52 = load i32, i32* %4, align 4
  %53 = load i32, i32* %5, align 4
  %54 = srem i32 %52, %53
  %55 = icmp eq i32 %54, 0
  br i1 %55, label %56, label %57

56:                                               ; preds = %51
  br label %61

57:                                               ; preds = %51
  br label %58

58:                                               ; preds = %57
  %59 = load i32, i32* %5, align 4
  %60 = add nsw i32 %59, 1
  store i32 %60, i32* %5, align 4
  br label %45

61:                                               ; preds = %56, %45
  %62 = load i32, i32* %6, align 4
  %63 = load i32, i32* %6, align 4
  %64 = mul nsw i32 %62, %63
  %65 = load i32, i32* %3, align 4
  %66 = icmp sgt i32 %64, %65
  br i1 %66, label %67, label %77

67:                                               ; preds = %61
  %68 = load i32, i32* %5, align 4
  %69 = load i32, i32* %5, align 4
  %70 = mul nsw i32 %68, %69
  %71 = load i32, i32* %4, align 4
  %72 = icmp sgt i32 %70, %71
  br i1 %72, label %73, label %77

73:                                               ; preds = %67
  %74 = load i32, i32* %3, align 4
  %75 = load i32, i32* %4, align 4
  %76 = call i32 (i8*, ...) @printf(i8* getelementptr inbounds ([7 x i8], [7 x i8]* @.str.1, i64 0, i64 0), i32 %74, i32 %75)
  br label %77

77:                                               ; preds = %73, %67, %61
  br label %78

78:                                               ; preds = %77, %23, %17
  br label %79

79:                                               ; preds = %78
  %80 = load i32, i32* %4, align 4
  %81 = add nsw i32 %80, 2
  store i32 %81, i32* %4, align 4
  br label %13

82:                                               ; preds = %13
  br label %83

83:                                               ; preds = %82
  %84 = load i32, i32* %3, align 4
  %85 = add nsw i32 %84, 2
  store i32 %85, i32* %3, align 4
  br label %8

86:                                               ; preds = %8
  %87 = load i32, i32* %1, align 4
  ret i32 %87
}

declare dso_local i32 @__isoc99_scanf(i8*, ...) #1

declare dso_local i32 @printf(i8*, ...) #1


!llvm.module.flags = !{!0}
!llvm.ident = !{!1}

!0 = !{i32 1, !"wchar_size", i32 4}
!1 = !{!"clang version 10.0.0-4ubuntu1 "}
